target datalayout = "e-m:e-p270:32:32-p271:32:32-p272:64:64-i64:64-i128:128-f80:128-n8:16:32:64-S128"
target triple = "x86_64-pc-linux-gnu"

%class.QString = type { %struct.QArrayDataPointer }
%struct.QArrayDataPointer = type { ptr, ptr, i64 }
%struct.recent_settings_tag = type { i32, i32, i32, i32, i32, i32, i32, i32, i32, i32, i32, i32, i32, i32, i32, i32, i32, i32, i32, i32, i32, i32, i32, i32, i32, i32, i32, i32, i32, i32, i32, i32, i32, i32, i32, i32, ptr, ptr, ptr, i32, i32, ptr, ptr, ptr, ptr, ptr, ptr, i32, ptr, ptr, ptr }
%struct.QMetaObject = type { %"struct.QMetaObject::Data" }
%"struct.QMetaObject::Data" = type { %"struct.QMetaObject::SuperData", ptr, ptr, ptr, ptr, ptr, ptr }
%"struct.QMetaObject::SuperData" = type { ptr }
%class.DisplayFilterEdit = type { %class.SyntaxLineEdit.base, i32, %class.QString, ptr, ptr, ptr, ptr, ptr, ptr, i8, %class.QString, %class.QString, i8, %class.QString }
%class.SyntaxLineEdit.base = type <{ %class.QLineEdit, ptr, ptr, i32, [4 x i8], %class.QString, %class.QString, %class.QString, %class.QString, %class.QString, i8 }>
%class.QLineEdit = type { %class.QWidget }
%class.QWidget = type { %class.QObject, %class.QPaintDevice.base, ptr }
%class.QObject = type { ptr, %class.QScopedPointer }
%class.QScopedPointer = type { ptr }
%class.QPaintDevice.base = type <{ ptr, i16 }>

@recent = external global %struct.recent_settings_tag, align 8
@_ZN7QAction16staticMetaObjectE = external global %struct.QMetaObject, align 8

; Function Attrs: mustprogress uwtable
define linkonce_odr noundef ptr @_ZNK11QMetaObject4castEP7QObject(ptr noundef nonnull align 8 dereferenceable(56) %0, ptr noundef %1) #1 comdat align 2 {
  %3 = alloca ptr, align 8
  %4 = alloca ptr, align 8
  store ptr %0, ptr %3, align 8
  store ptr %1, ptr %4, align 8
  %5 = load ptr, ptr %3, align 8
  %6 = load ptr, ptr %4, align 8
  %7 = call noundef ptr @_ZNK11QMetaObject4castEPK7QObject(ptr noundef nonnull align 8 dereferenceable(56) %5, ptr noundef %6)
  ret ptr %7
}

; Function Attrs: mustprogress uwtable
define linkonce_odr noundef ptr @_Z12qobject_castIP7QActionET_P7QObject(ptr noundef %0) #1 comdat {
  %2 = alloca ptr, align 8
  store ptr %0, ptr %2, align 8
  %3 = load ptr, ptr %2, align 8
  %4 = call noundef ptr @_ZNK11QMetaObject4castEP7QObject(ptr noundef nonnull align 8 dereferenceable(56) @_ZN7QAction16staticMetaObjectE, ptr noundef %3)
  ret ptr %4
}

; Function Attrs: mustprogress uwtable
define void @_ZN17DisplayFilterEdit23triggerAlignementActionEv(ptr noundef nonnull align 8 dereferenceable(352) %0) #1 align 2 {
  %2 = alloca ptr, align 8
  store ptr %0, ptr %2, align 8
  %3 = load ptr, ptr %2, align 8
  %4 = getelementptr inbounds %class.DisplayFilterEdit, ptr %3, i32 0, i32 9
  %5 = load i8, ptr %4, align 8
  %6 = trunc i8 %5 to i1
  %7 = xor i1 %6, true
  %8 = getelementptr inbounds %class.DisplayFilterEdit, ptr %3, i32 0, i32 9
  %9 = zext i1 %7 to i8
  store i8 %9, ptr %8, align 8
  %10 = call noundef ptr @_ZNK7QObject6senderEv(ptr noundef nonnull align 8 dereferenceable(16) %3)
  %11 = call noundef ptr @_Z12qobject_castIP7QActionET_P7QObject(ptr noundef %10)
  %12 = icmp ne ptr %11, null
  br i1 %12, label %13, label %19

13:                                               ; preds = %1
  %14 = call noundef ptr @_ZNK7QObject6senderEv(ptr noundef nonnull align 8 dereferenceable(16) %3)
  %15 = call noundef ptr @_Z12qobject_castIP7QActionET_P7QObject(ptr noundef %14)
  %16 = getelementptr inbounds %class.DisplayFilterEdit, ptr %3, i32 0, i32 9
  %17 = load i8, ptr %16, align 8
  %18 = trunc i8 %17 to i1
  call void @_ZN7QAction10setCheckedEb(ptr noundef nonnull align 8 dereferenceable(16) %15, i1 noundef zeroext %18)
  br label %19

19:                                               ; preds = %13, %1
  %20 = getelementptr inbounds %class.DisplayFilterEdit, ptr %3, i32 0, i32 9
  %21 = load i8, ptr %20, align 8
  %22 = trunc i8 %21 to i1
  %23 = zext i1 %22 to i32
  store i32 %23, ptr getelementptr inbounds (%struct.recent_settings_tag, ptr @recent, i32 0, i32 33), align 4
  %24 = call i32 @write_recent()
  call void @_ZN17DisplayFilterEdit18alignActionButtonsEv(ptr noundef nonnull align 8 dereferenceable(352) %3)
  ret void
}