; Function Attrs: mustprogress uwtable
define void @_ZN17DisplayFilterEdit23triggerAlignementActionEv(ptr noundef nonnull align 8 dereferenceable(352) %0) #2 align 2 {
  %2 = getelementptr inbounds i8, ptr %0, i64 264
  %3 = load i8, ptr %2, align 8
  %4 = and i8 %3, 1
  %5 = xor i8 %4, 1
  store i8 %5, ptr %2, align 8
  %6 = tail call noundef ptr @_ZNK7QObject6senderEv(ptr noundef nonnull align 8 dereferenceable(16) %0)
  %7 = tail call noundef ptr @_ZNK11QMetaObject4castEPK7QObject(ptr noundef nonnull align 8 dereferenceable(56) @_ZN7QAction16staticMetaObjectE, ptr noundef %6)
  %.not = icmp eq ptr %7, null
  br i1 %.not, label %14, label %8

8:                                                ; preds = %1
  %9 = tail call noundef ptr @_ZNK7QObject6senderEv(ptr noundef nonnull align 8 dereferenceable(16) %0)
  %10 = tail call noundef ptr @_ZNK11QMetaObject4castEPK7QObject(ptr noundef nonnull align 8 dereferenceable(56) @_ZN7QAction16staticMetaObjectE, ptr noundef %9)
  %11 = load i8, ptr %2, align 8
  %12 = and i8 %11, 1
  %13 = icmp ne i8 %12, 0
  tail call void @_ZN7QAction10setCheckedEb(ptr noundef nonnull align 8 dereferenceable(16) %10, i1 noundef zeroext %13)
  br label %14

14:                                               ; preds = %8, %1
  %15 = load i8, ptr %2, align 8
  %16 = and i8 %15, 1
  %17 = zext nneg i8 %16 to i32
  store i32 %17, ptr getelementptr inbounds (%struct.recent_settings_tag, ptr @recent, i64 0, i32 33), align 4
  %18 = tail call i32 @write_recent()
  tail call void @_ZN17DisplayFilterEdit18alignActionButtonsEv(ptr noundef nonnull align 8 dereferenceable(352) %0)
  ret void
}